(dp1
S'session'
p2
(dp3
S'picture'
p4
Vhttps://lh3.googleusercontent.com/-rbhnKPBNSkU/AAAAAAAAAAI/AAAAAAAAADY/iVqK43tZWqU/photo.jpg
p5
sS'_accessed_time'
p6
F1478896525.6452661
sS'user'
p7
Vjenniferw703@gmail.com
p8
sS'_creation_time'
p9
F1478896525.6452661
sS'name'
p10
VJiaying Wang
p11
ss.