(dp1
S'session'
p2
(dp3
S'picture'
p4
Vhttps://lh4.googleusercontent.com/-4tMPr3MWPz8/AAAAAAAAAAI/AAAAAAAAAJQ/pTEKQdehMvE/photo.jpg
p5
sS'_accessed_time'
p6
F1537993612.3041861
sS'user'
p7
Vbingqing0826@gmail.com
p8
sS'_creation_time'
p9
F1537993334.826128
sS'name'
p10
VBINGQING HE
p11
ss.