(dp1
S'session'
p2
(dp3
S'picture'
p4
Vhttps://lh5.googleusercontent.com/-lSa94o1wABQ/AAAAAAAAAAI/AAAAAAAAAhk/uOxArG2gFa4/photo.jpg
p5
sS'_accessed_time'
p6
F1478896068.2473609
sS'user'
p7
Vjiayingw703@gmail.com
p8
sS'_creation_time'
p9
F1478896065.3837681
sS'name'
p10
VJiaying Wang
p11
ss.