(dp1
S'session'
p2
(dp3
S'picture'
p4
Vhttps://lh6.googleusercontent.com/-GMdQ7GmiFs0/AAAAAAAAAAI/AAAAAAAAAqo/2v-1iNqsiIo/photo.jpg
p5
sS'_accessed_time'
p6
F1478992427.79
sS'user'
p7
Vkarim.koreitem@gmail.com
p8
sS'_creation_time'
p9
F1478992416.479105
sS'name'
p10
VKarim Koreitem
p11
ss.